target datalayout = "e-m:e-p270:32:32-p271:32:32-p272:64:64-i64:64-i128:128-f80:128-n8:16:32:64-S128"
target triple = "x86_64-pc-linux-gnu"

%struct.JNINativeInterface_ = type { ptr, ptr, ptr, ptr, ptr, ptr, ptr, ptr, ptr, ptr, ptr, ptr, ptr, ptr, ptr, ptr, ptr, ptr, ptr, ptr, ptr, ptr, ptr, ptr, ptr, ptr, ptr, ptr, ptr, ptr, ptr, ptr, ptr, ptr, ptr, ptr, ptr, ptr, ptr, ptr, ptr, ptr, ptr, ptr, ptr, ptr, ptr, ptr, ptr, ptr, ptr, ptr, ptr, ptr, ptr, ptr, ptr, ptr, ptr, ptr, ptr, ptr, ptr, ptr, ptr, ptr, ptr, ptr, ptr, ptr, ptr, ptr, ptr, ptr, ptr, ptr, ptr, ptr, ptr, ptr, ptr, ptr, ptr, ptr, ptr, ptr, ptr, ptr, ptr, ptr, ptr, ptr, ptr, ptr, ptr, ptr, ptr, ptr, ptr, ptr, ptr, ptr, ptr, ptr, ptr, ptr, ptr, ptr, ptr, ptr, ptr, ptr, ptr, ptr, ptr, ptr, ptr, ptr, ptr, ptr, ptr, ptr, ptr, ptr, ptr, ptr, ptr, ptr, ptr, ptr, ptr, ptr, ptr, ptr, ptr, ptr, ptr, ptr, ptr, ptr, ptr, ptr, ptr, ptr, ptr, ptr, ptr, ptr, ptr, ptr, ptr, ptr, ptr, ptr, ptr, ptr, ptr, ptr, ptr, ptr, ptr, ptr, ptr, ptr, ptr, ptr, ptr, ptr, ptr, ptr, ptr, ptr, ptr, ptr, ptr, ptr, ptr, ptr, ptr, ptr, ptr, ptr, ptr, ptr, ptr, ptr, ptr, ptr, ptr, ptr, ptr, ptr, ptr, ptr, ptr, ptr, ptr, ptr, ptr, ptr, ptr, ptr, ptr, ptr, ptr, ptr, ptr, ptr, ptr, ptr, ptr, ptr, ptr, ptr, ptr, ptr, ptr, ptr, ptr, ptr, ptr, ptr, ptr, ptr, ptr, ptr, ptr, ptr, ptr, ptr, ptr, ptr, ptr, ptr, ptr }
%struct.BufImageS_t = type { ptr, %struct.RasterS_t, %struct.ColorModelS_t, %struct.HintS_t, i32 }
%struct.RasterS_t = type { ptr, ptr, ptr, %struct.SPPSampleModelS_t, ptr, i32, i32, i32, i32, i32, i32, i32, i32, i32, i32, i32, i32, i32, i32, i32, i32, i32 }
%struct.SPPSampleModelS_t = type { [32 x i32], [32 x i32], [32 x i32], i32, i32 }
%struct.ColorModelS_t = type { ptr, ptr, ptr, ptr, i32, i32, i32, i32, i32, i32, i32, i32, i32, i32, i32, i32 }
%struct.HintS_t = type { ptr, i32, i32, i32, i32, i32, i32, i32, i32, i32 }

@.str.23 = private unnamed_addr constant [14 x i8] c"Out of Memory\00", align 1
@g_BImgGetRGBMID = external global ptr, align 8

; Function Attrs: nounwind uwtable
define internal i32 @cvtCustomToDefault(ptr noundef %0, ptr noundef %1, i32 noundef %2, ptr noundef %3) #0 {
  %5 = alloca i32, align 4
  %6 = alloca ptr, align 8
  %7 = alloca ptr, align 8
  %8 = alloca i32, align 4
  %9 = alloca ptr, align 8
  %10 = alloca ptr, align 8
  %11 = alloca i32, align 4
  %12 = alloca i32, align 4
  %13 = alloca i32, align 4
  %14 = alloca ptr, align 8
  %15 = alloca ptr, align 8
  %16 = alloca ptr, align 8
  %17 = alloca i32, align 4
  %18 = alloca i32, align 4
  %19 = alloca i32, align 4
  store ptr %0, ptr %6, align 8
  store ptr %1, ptr %7, align 8
  store i32 %2, ptr %8, align 4
  store ptr %3, ptr %9, align 8
  %20 = load ptr, ptr %7, align 8
  %21 = getelementptr inbounds %struct.BufImageS_t, ptr %20, i32 0, i32 1
  store ptr %21, ptr %10, align 8
  %22 = load ptr, ptr %10, align 8
  %23 = getelementptr inbounds %struct.RasterS_t, ptr %22, i32 0, i32 5
  %24 = load i32, ptr %23, align 8
  store i32 %24, ptr %11, align 4
  %25 = load ptr, ptr %10, align 8
  %26 = getelementptr inbounds %struct.RasterS_t, ptr %25, i32 0, i32 6
  %27 = load i32, ptr %26, align 4
  store i32 %27, ptr %12, align 4
  store ptr null, ptr %14, align 8
  %28 = load ptr, ptr %9, align 8
  store ptr %28, ptr %16, align 8
  %29 = load i32, ptr %12, align 4
  %30 = icmp sgt i32 %29, 10
  br i1 %30, label %31, label %32

31:                                               ; preds = %4
  br label %34

32:                                               ; preds = %4
  %33 = load i32, ptr %12, align 4
  br label %34

34:                                               ; preds = %32, %31
  %35 = phi i32 [ 10, %31 ], [ %33, %32 ]
  store i32 %35, ptr %17, align 4
  %36 = load i32, ptr %11, align 4
  %37 = mul nsw i32 %36, 4
  store i32 %37, ptr %18, align 4
  store i32 0, ptr %19, align 4
  %38 = load i32, ptr %17, align 4
  %39 = icmp sgt i32 %38, 0
  br i1 %39, label %40, label %48

40:                                               ; preds = %34
  %41 = load i32, ptr %18, align 4
  %42 = icmp sge i32 %41, 0
  br i1 %42, label %43, label %48

43:                                               ; preds = %40
  %44 = load i32, ptr %17, align 4
  %45 = sdiv i32 2147483647, %44
  %46 = load i32, ptr %18, align 4
  %47 = icmp sgt i32 %45, %46
  br i1 %47, label %49, label %48

48:                                               ; preds = %43, %40, %34
  store i32 -1, ptr %5, align 4
  br label %161

49:                                               ; preds = %43
  %50 = load i32, ptr %17, align 4
  %51 = load i32, ptr %18, align 4
  %52 = mul nsw i32 %50, %51
  store i32 %52, ptr %19, align 4
  %53 = load ptr, ptr %6, align 8
  %54 = load ptr, ptr %53, align 8
  %55 = getelementptr inbounds %struct.JNINativeInterface_, ptr %54, i32 0, i32 179
  %56 = load ptr, ptr %55, align 8
  %57 = load ptr, ptr %6, align 8
  %58 = load i32, ptr %19, align 4
  %59 = call ptr %56(ptr noundef %57, i32 noundef %58)
  store ptr %59, ptr %14, align 8
  %60 = load ptr, ptr %14, align 8
  %61 = icmp eq ptr %60, null
  br i1 %61, label %62, label %69

62:                                               ; preds = %49
  %63 = load ptr, ptr %6, align 8
  %64 = load ptr, ptr %63, align 8
  %65 = getelementptr inbounds %struct.JNINativeInterface_, ptr %64, i32 0, i32 17
  %66 = load ptr, ptr %65, align 8
  %67 = load ptr, ptr %6, align 8
  call void %66(ptr noundef %67)
  %68 = load ptr, ptr %6, align 8
  call void @JNU_ThrowOutOfMemoryError(ptr noundef %68, ptr noundef @.str.23)
  store i32 -1, ptr %5, align 4
  br label %161

69:                                               ; preds = %49
  store i32 0, ptr %13, align 4
  br label %70

70:                                               ; preds = %150, %69
  %71 = load i32, ptr %13, align 4
  %72 = load i32, ptr %12, align 4
  %73 = icmp slt i32 %71, %72
  br i1 %73, label %74, label %154

74:                                               ; preds = %70
  %75 = load i32, ptr %13, align 4
  %76 = load i32, ptr %17, align 4
  %77 = add nsw i32 %75, %76
  %78 = load i32, ptr %12, align 4
  %79 = icmp sgt i32 %77, %78
  br i1 %79, label %80, label %87

80:                                               ; preds = %74
  %81 = load i32, ptr %12, align 4
  %82 = load i32, ptr %13, align 4
  %83 = sub nsw i32 %81, %82
  store i32 %83, ptr %17, align 4
  %84 = load i32, ptr %17, align 4
  %85 = load i32, ptr %18, align 4
  %86 = mul nsw i32 %84, %85
  store i32 %86, ptr %19, align 4
  br label %87

87:                                               ; preds = %80, %74
  %88 = load ptr, ptr %6, align 8
  %89 = load ptr, ptr %88, align 8
  %90 = getelementptr inbounds %struct.JNINativeInterface_, ptr %89, i32 0, i32 34
  %91 = load ptr, ptr %90, align 8
  %92 = load ptr, ptr %6, align 8
  %93 = load ptr, ptr %7, align 8
  %94 = getelementptr inbounds %struct.BufImageS_t, ptr %93, i32 0, i32 0
  %95 = load ptr, ptr %94, align 8
  %96 = load ptr, ptr @g_BImgGetRGBMID, align 8
  %97 = load i32, ptr %13, align 4
  %98 = load i32, ptr %11, align 4
  %99 = load i32, ptr %17, align 4
  %100 = load ptr, ptr %14, align 8
  %101 = load i32, ptr %11, align 4
  %102 = call ptr (ptr, ptr, ptr, ...) %91(ptr noundef %92, ptr noundef %95, ptr noundef %96, i32 noundef 0, i32 noundef %97, i32 noundef %98, i32 noundef %99, ptr noundef %100, i32 noundef 0, i32 noundef %101)
  %103 = load ptr, ptr %6, align 8
  %104 = load ptr, ptr %103, align 8
  %105 = getelementptr inbounds %struct.JNINativeInterface_, ptr %104, i32 0, i32 15
  %106 = load ptr, ptr %105, align 8
  %107 = load ptr, ptr %6, align 8
  %108 = call ptr %106(ptr noundef %107)
  %109 = icmp ne ptr %108, null
  br i1 %109, label %110, label %117

110:                                              ; preds = %87
  %111 = load ptr, ptr %6, align 8
  %112 = load ptr, ptr %111, align 8
  %113 = getelementptr inbounds %struct.JNINativeInterface_, ptr %112, i32 0, i32 23
  %114 = load ptr, ptr %113, align 8
  %115 = load ptr, ptr %6, align 8
  %116 = load ptr, ptr %14, align 8
  call void %114(ptr noundef %115, ptr noundef %116)
  store i32 -1, ptr %5, align 4
  br label %161

117:                                              ; preds = %87
  %118 = load ptr, ptr %6, align 8
  %119 = load ptr, ptr %118, align 8
  %120 = getelementptr inbounds %struct.JNINativeInterface_, ptr %119, i32 0, i32 222
  %121 = load ptr, ptr %120, align 8
  %122 = load ptr, ptr %6, align 8
  %123 = load ptr, ptr %14, align 8
  %124 = call ptr %121(ptr noundef %122, ptr noundef %123, ptr noundef null)
  store ptr %124, ptr %15, align 8
  %125 = load ptr, ptr %15, align 8
  %126 = icmp eq ptr %125, null
  br i1 %126, label %127, label %134

127:                                              ; preds = %117
  %128 = load ptr, ptr %6, align 8
  %129 = load ptr, ptr %128, align 8
  %130 = getelementptr inbounds %struct.JNINativeInterface_, ptr %129, i32 0, i32 23
  %131 = load ptr, ptr %130, align 8
  %132 = load ptr, ptr %6, align 8
  %133 = load ptr, ptr %14, align 8
  call void %131(ptr noundef %132, ptr noundef %133)
  store i32 -1, ptr %5, align 4
  br label %161

134:                                              ; preds = %117
  %135 = load ptr, ptr %16, align 8
  %136 = load ptr, ptr %15, align 8
  %137 = load i32, ptr %19, align 4
  %138 = sext i32 %137 to i64
  call void @llvm.memcpy.p0.p0.i64(ptr align 1 %135, ptr align 4 %136, i64 %138, i1 false)
  %139 = load i32, ptr %19, align 4
  %140 = load ptr, ptr %16, align 8
  %141 = sext i32 %139 to i64
  %142 = getelementptr inbounds i8, ptr %140, i64 %141
  store ptr %142, ptr %16, align 8
  %143 = load ptr, ptr %6, align 8
  %144 = load ptr, ptr %143, align 8
  %145 = getelementptr inbounds %struct.JNINativeInterface_, ptr %144, i32 0, i32 223
  %146 = load ptr, ptr %145, align 8
  %147 = load ptr, ptr %6, align 8
  %148 = load ptr, ptr %14, align 8
  %149 = load ptr, ptr %15, align 8
  call void %146(ptr noundef %147, ptr noundef %148, ptr noundef %149, i32 noundef 2)
  br label %150

150:                                              ; preds = %134
  %151 = load i32, ptr %17, align 4
  %152 = load i32, ptr %13, align 4
  %153 = add nsw i32 %152, %151
  store i32 %153, ptr %13, align 4
  br label %70, !llvm.loop !57

154:                                              ; preds = %70
  %155 = load ptr, ptr %6, align 8
  %156 = load ptr, ptr %155, align 8
  %157 = getelementptr inbounds %struct.JNINativeInterface_, ptr %156, i32 0, i32 23
  %158 = load ptr, ptr %157, align 8
  %159 = load ptr, ptr %6, align 8
  %160 = load ptr, ptr %14, align 8
  call void %158(ptr noundef %159, ptr noundef %160)
  store i32 0, ptr %5, align 4
  br label %161

161:                                              ; preds = %154, %127, %110, %62, %48
  %162 = load i32, ptr %5, align 4
  ret i32 %162
}