; Function Attrs: nounwind uwtable
define internal fastcc range(i32 -1, 1) i32 @cvtCustomToDefault(ptr noundef %0, ptr nocapture noundef readonly %1, ptr nocapture noundef writeonly %2) unnamed_addr #0 {
  %4 = getelementptr inbounds i8, ptr %1, i64 432
  %5 = load i32, ptr %4, align 8
  %6 = getelementptr inbounds i8, ptr %1, i64 436
  %7 = load i32, ptr %6, align 4
  %8 = tail call i32 @llvm.smin.i32(i32 %7, i32 10)
  %9 = shl nsw i32 %5, 2
  %10 = icmp sgt i32 %7, 0
  %11 = icmp sgt i32 %5, -1
  %or.cond = select i1 %10, i1 %11, i1 false
  br i1 %or.cond, label %12, label %64

12:                                               ; preds = %3
  %13 = udiv i32 2147483647, %8
  %14 = icmp sgt i32 %13, %9
  br i1 %14, label %15, label %64

15:                                               ; preds = %12
  %16 = mul nuw nsw i32 %8, %9
  %17 = load ptr, ptr %0, align 8
  %18 = getelementptr inbounds i8, ptr %17, i64 1432
  %19 = load ptr, ptr %18, align 8
  %20 = tail call ptr %19(ptr noundef nonnull %0, i32 noundef %16) #13
  %21 = icmp eq ptr %20, null
  br i1 %21, label %22, label %.lr.ph

22:                                               ; preds = %15
  %23 = load ptr, ptr %0, align 8
  %24 = getelementptr inbounds i8, ptr %23, i64 136
  %25 = load ptr, ptr %24, align 8
  tail call void %25(ptr noundef nonnull %0) #13
  tail call void @JNU_ThrowOutOfMemoryError(ptr noundef nonnull %0, ptr noundef nonnull @.str.23) #13
  br label %64

.lr.ph:                                           ; preds = %15, %53
  %.077 = phi i32 [ %.1, %53 ], [ %16, %15 ]
  %.06576 = phi i32 [ %.166, %53 ], [ %8, %15 ]
  %.06775 = phi ptr [ %55, %53 ], [ %2, %15 ]
  %.06874 = phi i32 [ %59, %53 ], [ 0, %15 ]
  %26 = add nsw i32 %.06576, %.06874
  %27 = icmp sgt i32 %26, %7
  %28 = sub nsw i32 %7, %.06874
  %29 = mul nsw i32 %28, %9
  %.166 = select i1 %27, i32 %28, i32 %.06576
  %.1 = select i1 %27, i32 %29, i32 %.077
  %30 = load ptr, ptr %0, align 8
  %31 = getelementptr inbounds i8, ptr %30, i64 272
  %32 = load ptr, ptr %31, align 8
  %33 = load ptr, ptr %1, align 8
  %34 = load ptr, ptr @g_BImgGetRGBMID, align 8
  %35 = tail call ptr (ptr, ptr, ptr, ...) %32(ptr noundef nonnull %0, ptr noundef %33, ptr noundef %34, i32 noundef 0, i32 noundef %.06874, i32 noundef %5, i32 noundef %.166, ptr noundef nonnull %20, i32 noundef 0, i32 noundef %5) #13
  %36 = load ptr, ptr %0, align 8
  %37 = getelementptr inbounds i8, ptr %36, i64 120
  %38 = load ptr, ptr %37, align 8
  %39 = tail call ptr %38(ptr noundef nonnull %0) #13
  %.not = icmp eq ptr %39, null
  %40 = load ptr, ptr %0, align 8
  br i1 %.not, label %44, label %41

41:                                               ; preds = %.lr.ph
  %42 = getelementptr inbounds i8, ptr %40, i64 184
  %43 = load ptr, ptr %42, align 8
  tail call void %43(ptr noundef nonnull %0, ptr noundef nonnull %20) #13
  br label %64

44:                                               ; preds = %.lr.ph
  %45 = getelementptr inbounds i8, ptr %40, i64 1776
  %46 = load ptr, ptr %45, align 8
  %47 = tail call ptr %46(ptr noundef nonnull %0, ptr noundef nonnull %20, ptr noundef null) #13
  %48 = icmp eq ptr %47, null
  br i1 %48, label %49, label %53

49:                                               ; preds = %44
  %50 = load ptr, ptr %0, align 8
  %51 = getelementptr inbounds i8, ptr %50, i64 184
  %52 = load ptr, ptr %51, align 8
  tail call void %52(ptr noundef nonnull %0, ptr noundef nonnull %20) #13
  br label %64

53:                                               ; preds = %44
  %54 = sext i32 %.1 to i64
  tail call void @llvm.memcpy.p0.p0.i64(ptr align 1 %.06775, ptr nonnull align 4 %47, i64 %54, i1 false)
  %55 = getelementptr inbounds i8, ptr %.06775, i64 %54
  %56 = load ptr, ptr %0, align 8
  %57 = getelementptr inbounds i8, ptr %56, i64 1784
  %58 = load ptr, ptr %57, align 8
  tail call void %58(ptr noundef nonnull %0, ptr noundef nonnull %20, ptr noundef nonnull %47, i32 noundef 2) #13
  %59 = add nsw i32 %.166, %.06874
  %60 = icmp slt i32 %59, %7
  br i1 %60, label %.lr.ph, label %._crit_edge, !llvm.loop !102

._crit_edge:                                      ; preds = %53
  %61 = load ptr, ptr %0, align 8
  %62 = getelementptr inbounds i8, ptr %61, i64 184
  %63 = load ptr, ptr %62, align 8
  tail call void %63(ptr noundef nonnull %0, ptr noundef nonnull %20) #13
  br label %64

64:                                               ; preds = %3, %12, %._crit_edge, %49, %41, %22
  %.064 = phi i32 [ -1, %22 ], [ -1, %41 ], [ -1, %49 ], [ 0, %._crit_edge ], [ -1, %12 ], [ -1, %3 ]
  ret i32 %.064
}